(lp0
(S'cppflags'
p1
ccopy_reg
_reconstructor
p2
(cino.utils
SpaceList
p3
c__builtin__
list
p4
(lp5
S'-mmcu=atmega2560'
p6
aS'-DF_CPU=16000000L'
p7
aS'-DARDUINO=105'
p8
aS'-I/usr/share/arduino/hardware/arduino/cores/arduino'
p9
aS'-ffunction-sections'
p10
aS'-fdata-sections'
p11
aS'-g'
p12
aS'-Os'
p13
aS'-w'
p14
aS'-I/usr/share/arduino/hardware/arduino/variants/mega'
p15
aS'-Ilib/Encoder-Library'
p16
aS'-Ilib/Encoder-Library/utility'
p17
aS'-Ilib/Arduino-PID-Library'
p18
aS'-I/usr/share/arduino/hardware/arduino/cores/arduino'
p19
aS'-I/usr/share/arduino/hardware/arduino/cores/arduino/avr-libc'
p20
atp21
Rp22
tp23
a(S'cxx'
p24
S'/usr/share/arduino/hardware/tools/avr/bin/avr-g++'
p25
tp26
a(S'build_dir'
p27
S'.build/mega2560'
p28
tp29
a(S'avrdude'
p30
S'/usr/share/arduino/hardware/tools/avrdude'
p31
tp32
a(S'ar'
p33
S'/usr/share/arduino/hardware/tools/avr/bin/avr-ar'
p34
tp35
a(S'names'
p36
(dp37
S'cpp'
p38
S'%s.cpp'
p39
sS'obj'
p40
S'%s.o'
p41
sS'lib'
p42
S'lib%s.a'
p43
sS'deps'
p44
S'%s.d'
p45
stp46
a(S'ldflags'
p47
g2
(g3
g4
(lp48
g6
aS'-Wl,-Os'
p49
aS'-Wl,--gc-sections'
p50
atp51
Rp52
tp53
a(S'arduino_lib_version'
p54
g2
(cino.environment
Version
p55
c__builtin__
tuple
p56
(I1
I0
I5
tp57
tp58
Rp59
tp60
a(S'objcopy'
p61
S'/usr/share/arduino/hardware/tools/avr/bin/avr-objcopy'
p62
tp63
a(S'board_models'
p64
cino.environment
BoardModels
p65
((lp66
(lp67
S'uno'
p68
a(dp69
S'build'
p70
(dp71
S'core'
p72
S'arduino'
p73
sS'mcu'
p74
S'atmega328p'
p75
sS'f_cpu'
p76
S'16000000L'
p77
sS'variant'
p78
S'standard'
p79
ssS'bootloader'
p80
(dp81
S'extended_fuses'
p82
S'0xfd'
p83
sS'high_fuses'
p84
S'0xde'
p85
sS'low_fuses'
p86
S'0xff'
p87
sS'lock_bits'
p88
S'0xcf'
p89
sS'file'
p90
S'optiboot_atmega328.hex'
p91
sS'path'
p92
S'optiboot'
p93
sS'unlock_bits'
p94
S'0xff'
p95
ssS'upload'
p96
(dp97
S'speed'
p98
S'115200'
p99
sS'maximum_size'
p100
S'32256'
p101
sS'protocol'
p102
S'arduino'
p103
ssS'name'
p104
S'Arduino Uno'
p105
sS'_coredir'
p106
S'/usr/share/arduino/hardware/arduino'
p107
saa(lp108
S'atmega328'
p109
a(dp110
S'build'
p111
(dp112
S'core'
p113
S'arduino'
p114
sS'mcu'
p115
S'atmega328p'
p116
sS'f_cpu'
p117
S'16000000L'
p118
sS'variant'
p119
S'standard'
p120
ssS'bootloader'
p121
(dp122
S'extended_fuses'
p123
S'0xfd'
p124
sS'high_fuses'
p125
S'0xDA'
p126
sS'low_fuses'
p127
S'0xFF'
p128
sS'lock_bits'
p129
S'0xcf'
p130
sS'file'
p131
S'ATmegaBOOT_168_atmega328.hex'
p132
sS'path'
p133
S'atmega'
p134
sS'unlock_bits'
p135
S'0xff'
p136
ssS'upload'
p137
(dp138
S'speed'
p139
S'57600'
p140
sS'maximum_size'
p141
S'30720'
p142
sS'protocol'
p143
S'arduino'
p144
ssS'name'
p145
S'Arduino Duemilanove w/ ATmega328'
p146
sg106
S'/usr/share/arduino/hardware/arduino'
p147
saa(lp148
S'diecimila'
p149
a(dp150
S'build'
p151
(dp152
S'core'
p153
S'arduino'
p154
sS'mcu'
p155
S'atmega168'
p156
sS'f_cpu'
p157
S'16000000L'
p158
sS'variant'
p159
S'standard'
p160
ssS'bootloader'
p161
(dp162
S'extended_fuses'
p163
S'0xf8'
p164
sS'high_fuses'
p165
S'0xdd'
p166
sS'low_fuses'
p167
S'0xff'
p168
sS'lock_bits'
p169
S'0xcf'
p170
sS'file'
p171
S'ATmegaBOOT_168_diecimila.hex'
p172
sS'path'
p173
S'atmega'
p174
sS'unlock_bits'
p175
S'0xff'
p176
ssS'upload'
p177
(dp178
S'speed'
p179
S'19200'
p180
sS'maximum_size'
p181
S'14336'
p182
sS'protocol'
p183
S'arduino'
p184
ssS'name'
p185
S'Arduino Diecimila or Duemilanove w/ ATmega168'
p186
sg106
S'/usr/share/arduino/hardware/arduino'
p187
saa(lp188
S'nano328'
p189
a(dp190
S'build'
p191
(dp192
S'core'
p193
S'arduino'
p194
sS'mcu'
p195
S'atmega328p'
p196
sS'f_cpu'
p197
S'16000000L'
p198
sS'variant'
p199
S'eightanaloginputs'
p200
ssS'bootloader'
p201
(dp202
S'extended_fuses'
p203
S'0xfd'
p204
sS'high_fuses'
p205
S'0xDA'
p206
sS'low_fuses'
p207
S'0xFF'
p208
sS'lock_bits'
p209
S'0xcf'
p210
sS'file'
p211
S'ATmegaBOOT_168_atmega328.hex'
p212
sS'path'
p213
S'atmega'
p214
sS'unlock_bits'
p215
S'0xff'
p216
ssS'upload'
p217
(dp218
S'speed'
p219
S'57600'
p220
sS'maximum_size'
p221
S'30720'
p222
sS'protocol'
p223
S'arduino'
p224
ssS'name'
p225
S'Arduino Nano w/ ATmega328'
p226
sg106
S'/usr/share/arduino/hardware/arduino'
p227
saa(lp228
S'nano'
p229
a(dp230
S'build'
p231
(dp232
S'core'
p233
S'arduino'
p234
sS'mcu'
p235
S'atmega168'
p236
sS'f_cpu'
p237
S'16000000L'
p238
sS'variant'
p239
S'eightanaloginputs'
p240
ssS'bootloader'
p241
(dp242
S'extended_fuses'
p243
S'0xf8'
p244
sS'high_fuses'
p245
S'0xdd'
p246
sS'low_fuses'
p247
S'0xff'
p248
sS'lock_bits'
p249
S'0xcf'
p250
sS'file'
p251
S'ATmegaBOOT_168_diecimila.hex'
p252
sS'path'
p253
S'atmega'
p254
sS'unlock_bits'
p255
S'0xff'
p256
ssS'upload'
p257
(dp258
S'speed'
p259
S'19200'
p260
sS'maximum_size'
p261
S'14336'
p262
sS'protocol'
p263
S'arduino'
p264
ssS'name'
p265
S'Arduino Nano w/ ATmega168'
p266
sg106
S'/usr/share/arduino/hardware/arduino'
p267
saa(lp268
S'mega2560'
p269
a(dp270
S'build'
p271
(dp272
S'core'
p273
S'arduino'
p274
sS'mcu'
p275
S'atmega2560'
p276
sS'f_cpu'
p277
S'16000000L'
p278
sS'variant'
p279
S'mega'
p280
ssS'bootloader'
p281
(dp282
S'extended_fuses'
p283
S'0xFD'
p284
sS'high_fuses'
p285
S'0xD8'
p286
sS'low_fuses'
p287
S'0xFF'
p288
sS'lock_bits'
p289
S'0xcf'
p290
sS'file'
p291
S'stk500boot_v2_mega2560.hex'
p292
sS'path'
p293
S'stk500v2'
p294
sS'unlock_bits'
p295
S'0xff'
p296
ssS'upload'
p297
(dp298
S'speed'
p299
S'115200'
p300
sS'maximum_size'
p301
S'258048'
p302
sS'protocol'
p303
S'wiring'
p304
ssS'name'
p305
S'Arduino Mega 2560 or Mega ADK'
p306
sg106
S'/usr/share/arduino/hardware/arduino'
p307
saa(lp308
S'mega'
p309
a(dp310
S'build'
p311
(dp312
S'core'
p313
S'arduino'
p314
sS'mcu'
p315
S'atmega1280'
p316
sS'f_cpu'
p317
S'16000000L'
p318
sS'variant'
p319
S'mega'
p320
ssS'bootloader'
p321
(dp322
S'extended_fuses'
p323
S'0xF5'
p324
sS'high_fuses'
p325
S'0xDA'
p326
sS'low_fuses'
p327
S'0xFF'
p328
sS'lock_bits'
p329
S'0xcf'
p330
sS'file'
p331
S'ATmegaBOOT_168_atmega1280.hex'
p332
sS'path'
p333
S'atmega'
p334
sS'unlock_bits'
p335
S'0xff'
p336
ssS'upload'
p337
(dp338
S'speed'
p339
S'57600'
p340
sS'maximum_size'
p341
S'126976'
p342
sS'protocol'
p343
S'arduino'
p344
ssS'name'
p345
S'Arduino Mega (ATmega1280)'
p346
sg106
S'/usr/share/arduino/hardware/arduino'
p347
saa(lp348
S'leonardo'
p349
a(dp350
S'build'
p351
(dp352
S'core'
p353
S'arduino'
p354
sS'f_cpu'
p355
S'16000000L'
p356
sS'vid'
p357
S'0x2341'
p358
sS'pid'
p359
S'0x8036'
p360
sS'variant'
p361
S'leonardo'
p362
sS'mcu'
p363
S'atmega32u4'
p364
ssS'bootloader'
p365
(dp366
S'extended_fuses'
p367
S'0xcb'
p368
sS'high_fuses'
p369
S'0xd8'
p370
sS'low_fuses'
p371
S'0xff'
p372
sS'lock_bits'
p373
S'0xef'
p374
sS'file'
p375
S'Caterina-Leonardo.hex'
p376
sS'path'
p377
S'caterina'
p378
sS'unlock_bits'
p379
S'0xff'
p380
ssS'upload'
p381
(dp382
S'speed'
p383
S'57600'
p384
sS'maximum_size'
p385
S'28672'
p386
sS'protocol'
p387
S'avr109'
p388
sS'disable_flushing'
p389
S'true'
p390
ssS'name'
p391
S'Arduino Leonardo'
p392
sg106
S'/usr/share/arduino/hardware/arduino'
p393
saa(lp394
S'esplora'
p395
a(dp396
S'build'
p397
(dp398
S'core'
p399
S'arduino'
p400
sS'f_cpu'
p401
S'16000000L'
p402
sS'vid'
p403
S'0x2341'
p404
sS'pid'
p405
S'0x803C'
p406
sS'variant'
p407
S'leonardo'
p408
sS'mcu'
p409
S'atmega32u4'
p410
ssS'bootloader'
p411
(dp412
S'extended_fuses'
p413
S'0xcb'
p414
sS'high_fuses'
p415
S'0xd8'
p416
sS'low_fuses'
p417
S'0xff'
p418
sS'lock_bits'
p419
S'0xef'
p420
sS'file'
p421
S'Caterina-Esplora.hex'
p422
sS'path'
p423
S'caterina'
p424
sS'unlock_bits'
p425
S'0xff'
p426
ssS'upload'
p427
(dp428
S'speed'
p429
S'57600'
p430
sS'maximum_size'
p431
S'28672'
p432
sS'protocol'
p433
S'avr109'
p434
sS'disable_flushing'
p435
S'true'
p436
ssS'name'
p437
S'Arduino Esplora'
p438
sg106
S'/usr/share/arduino/hardware/arduino'
p439
saa(lp440
S'micro'
p441
a(dp442
S'build'
p443
(dp444
S'core'
p445
S'arduino'
p446
sS'f_cpu'
p447
S'16000000L'
p448
sS'vid'
p449
S'0x2341'
p450
sS'pid'
p451
S'0x8037'
p452
sS'variant'
p453
S'micro'
p454
sS'mcu'
p455
S'atmega32u4'
p456
ssS'bootloader'
p457
(dp458
S'extended_fuses'
p459
S'0xcb'
p460
sS'high_fuses'
p461
S'0xd8'
p462
sS'low_fuses'
p463
S'0xff'
p464
sS'lock_bits'
p465
S'0xef'
p466
sS'file'
p467
S'Caterina-Micro.hex'
p468
sS'path'
p469
S'caterina'
p470
sS'unlock_bits'
p471
S'0xff'
p472
ssS'upload'
p473
(dp474
S'speed'
p475
S'57600'
p476
sS'maximum_size'
p477
S'28672'
p478
sS'protocol'
p479
S'avr109'
p480
sS'disable_flushing'
p481
S'true'
p482
ssS'name'
p483
S'Arduino Micro'
p484
sg106
S'/usr/share/arduino/hardware/arduino'
p485
saa(lp486
S'mini328'
p487
a(dp488
S'build'
p489
(dp490
S'core'
p491
S'arduino'
p492
sS'mcu'
p493
S'atmega328p'
p494
sS'f_cpu'
p495
S'16000000L'
p496
sS'variant'
p497
S'eightanaloginputs'
p498
ssS'bootloader'
p499
(dp500
S'extended_fuses'
p501
S'0xfd'
p502
sS'high_fuses'
p503
S'0xd8'
p504
sS'low_fuses'
p505
S'0xff'
p506
sS'lock_bits'
p507
S'0xcf'
p508
sS'file'
p509
S'optiboot_atmega328-Mini.hex'
p510
sS'path'
p511
S'optiboot'
p512
sS'unlock_bits'
p513
S'0xff'
p514
ssS'upload'
p515
(dp516
S'speed'
p517
S'115200'
p518
sS'maximum_size'
p519
S'28672'
p520
sS'protocol'
p521
S'arduino'
p522
ssS'name'
p523
S'Arduino Mini w/ ATmega328'
p524
sg106
S'/usr/share/arduino/hardware/arduino'
p525
saa(lp526
S'mini'
p527
a(dp528
S'build'
p529
(dp530
S'core'
p531
S'arduino'
p532
sS'mcu'
p533
S'atmega168'
p534
sS'f_cpu'
p535
S'16000000L'
p536
sS'variant'
p537
S'eightanaloginputs'
p538
ssS'bootloader'
p539
(dp540
S'extended_fuses'
p541
S'0xf8'
p542
sS'high_fuses'
p543
S'0xdd'
p544
sS'low_fuses'
p545
S'0xff'
p546
sS'lock_bits'
p547
S'0xcf'
p548
sS'file'
p549
S'ATmegaBOOT_168_ng.hex'
p550
sS'path'
p551
S'atmega'
p552
sS'unlock_bits'
p553
S'0xff'
p554
ssS'upload'
p555
(dp556
S'speed'
p557
S'19200'
p558
sS'maximum_size'
p559
S'14336'
p560
sS'protocol'
p561
S'arduino'
p562
ssS'name'
p563
S'Arduino Mini w/ ATmega168'
p564
sg106
S'/usr/share/arduino/hardware/arduino'
p565
saa(lp566
S'ethernet'
p567
a(dp568
S'build'
p569
(dp570
S'f_cpu'
p571
S'16000000L'
p572
sS'mcu'
p573
S'atmega328p'
p574
sS'variant'
p575
S'standard'
p576
sS'core'
p577
S'arduino'
p578
ssS'bootloader'
p579
(dp580
S'extended_fuses'
p581
S'0xfd'
p582
sS'high_fuses'
p583
S'0xde'
p584
sS'low_fuses'
p585
S'0xff'
p586
sS'lock_bits'
p587
S'0xcf'
p588
sS'file'
p589
S'optiboot_atmega328.hex'
p590
sS'path'
p591
S'optiboot'
p592
sS'unlock_bits'
p593
S'0xff'
p594
ssS'upload'
p595
(dp596
S'speed'
p597
S'115200'
p598
sS'maximum_size'
p599
S'32256'
p600
sS'protocol'
p601
S'arduino'
p602
ssS'name'
p603
S'Arduino Ethernet'
p604
sg106
S'/usr/share/arduino/hardware/arduino'
p605
saa(lp606
S'fio'
p607
a(dp608
S'build'
p609
(dp610
S'core'
p611
S'arduino'
p612
sS'mcu'
p613
S'atmega328p'
p614
sS'f_cpu'
p615
S'8000000L'
p616
sS'variant'
p617
S'eightanaloginputs'
p618
ssS'bootloader'
p619
(dp620
S'extended_fuses'
p621
S'0xfd'
p622
sS'high_fuses'
p623
S'0xDA'
p624
sS'low_fuses'
p625
S'0xFF'
p626
sS'lock_bits'
p627
S'0xcf'
p628
sS'file'
p629
S'ATmegaBOOT_168_atmega328_pro_8MHz.hex'
p630
sS'path'
p631
S'arduino:atmega'
p632
sS'unlock_bits'
p633
S'0xff'
p634
ssS'upload'
p635
(dp636
S'speed'
p637
S'57600'
p638
sS'maximum_size'
p639
S'30720'
p640
sS'protocol'
p641
S'arduino'
p642
ssS'name'
p643
S'Arduino Fio'
p644
sg106
S'/usr/share/arduino/hardware/arduino'
p645
saa(lp646
S'bt328'
p647
a(dp648
S'build'
p649
(dp650
S'core'
p651
S'arduino'
p652
sS'mcu'
p653
S'atmega328p'
p654
sS'f_cpu'
p655
S'16000000L'
p656
sS'variant'
p657
S'eightanaloginputs'
p658
ssS'bootloader'
p659
(dp660
S'extended_fuses'
p661
S'0xfd'
p662
sS'high_fuses'
p663
S'0xd8'
p664
sS'low_fuses'
p665
S'0xff'
p666
sS'lock_bits'
p667
S'0xcf'
p668
sS'file'
p669
S'ATmegaBOOT_168_atmega328_bt.hex'
p670
sS'path'
p671
S'bt'
p672
sS'unlock_bits'
p673
S'0xff'
p674
ssS'upload'
p675
(dp676
S'speed'
p677
S'19200'
p678
sS'maximum_size'
p679
S'28672'
p680
sS'protocol'
p681
S'arduino'
p682
sS'disable_flushing'
p683
S'true'
p684
ssS'name'
p685
S'Arduino BT w/ ATmega328'
p686
sg106
S'/usr/share/arduino/hardware/arduino'
p687
saa(lp688
S'bt'
p689
a(dp690
S'build'
p691
(dp692
S'core'
p693
S'arduino'
p694
sS'mcu'
p695
S'atmega168'
p696
sS'f_cpu'
p697
S'16000000L'
p698
sS'variant'
p699
S'eightanaloginputs'
p700
ssS'bootloader'
p701
(dp702
S'extended_fuses'
p703
S'0xf8'
p704
sS'high_fuses'
p705
S'0xdd'
p706
sS'low_fuses'
p707
S'0xff'
p708
sS'lock_bits'
p709
S'0xcf'
p710
sS'file'
p711
S'ATmegaBOOT_168.hex'
p712
sS'path'
p713
S'bt'
p714
sS'unlock_bits'
p715
S'0xff'
p716
ssS'upload'
p717
(dp718
S'speed'
p719
S'19200'
p720
sS'maximum_size'
p721
S'14336'
p722
sS'protocol'
p723
S'arduino'
p724
sS'disable_flushing'
p725
S'true'
p726
ssS'name'
p727
S'Arduino BT w/ ATmega168'
p728
sg106
S'/usr/share/arduino/hardware/arduino'
p729
saa(lp730
S'LilyPadUSB'
p731
a(dp732
S'build'
p733
(dp734
S'core'
p735
S'arduino'
p736
sS'f_cpu'
p737
S'8000000L'
p738
sS'vid'
p739
S'0x1B4F'
p740
sS'pid'
p741
S'0x9208'
p742
sS'variant'
p743
S'leonardo'
p744
sS'mcu'
p745
S'atmega32u4'
p746
ssS'bootloader'
p747
(dp748
S'extended_fuses'
p749
S'0xce'
p750
sS'high_fuses'
p751
S'0xd8'
p752
sS'low_fuses'
p753
S'0xff'
p754
sS'lock_bits'
p755
S'0xef'
p756
sS'file'
p757
S'Caterina-LilyPadUSB.hex'
p758
sS'path'
p759
S'caterina-LilyPadUSB'
p760
sS'unlock_bits'
p761
S'0xff'
p762
ssS'upload'
p763
(dp764
S'speed'
p765
S'57600'
p766
sS'maximum_size'
p767
S'28672'
p768
sS'protocol'
p769
S'avr109'
p770
sS'disable_flushing'
p771
S'true'
p772
ssS'name'
p773
S'LilyPad Arduino USB'
p774
sg106
S'/usr/share/arduino/hardware/arduino'
p775
saa(lp776
S'lilypad328'
p777
a(dp778
S'build'
p779
(dp780
S'core'
p781
S'arduino'
p782
sS'mcu'
p783
S'atmega328p'
p784
sS'f_cpu'
p785
S'8000000L'
p786
sS'variant'
p787
S'standard'
p788
ssS'bootloader'
p789
(dp790
S'extended_fuses'
p791
S'0xfd'
p792
sS'high_fuses'
p793
S'0xDA'
p794
sS'low_fuses'
p795
S'0xFF'
p796
sS'lock_bits'
p797
S'0xcf'
p798
sS'file'
p799
S'ATmegaBOOT_168_atmega328_pro_8MHz.hex'
p800
sS'path'
p801
S'atmega'
p802
sS'unlock_bits'
p803
S'0xff'
p804
ssS'upload'
p805
(dp806
S'speed'
p807
S'57600'
p808
sS'maximum_size'
p809
S'30720'
p810
sS'protocol'
p811
S'arduino'
p812
ssS'name'
p813
S'LilyPad Arduino w/ ATmega328'
p814
sg106
S'/usr/share/arduino/hardware/arduino'
p815
saa(lp816
S'lilypad'
p817
a(dp818
S'build'
p819
(dp820
S'core'
p821
S'arduino'
p822
sS'mcu'
p823
S'atmega168'
p824
sS'f_cpu'
p825
S'8000000L'
p826
sS'variant'
p827
S'standard'
p828
ssS'bootloader'
p829
(dp830
S'extended_fuses'
p831
S'0xf8'
p832
sS'high_fuses'
p833
S'0xdd'
p834
sS'low_fuses'
p835
S'0xe2'
p836
sS'lock_bits'
p837
S'0xcf'
p838
sS'file'
p839
S'LilyPadBOOT_168.hex'
p840
sS'path'
p841
S'lilypad'
p842
sS'unlock_bits'
p843
S'0xff'
p844
ssS'upload'
p845
(dp846
S'speed'
p847
S'19200'
p848
sS'maximum_size'
p849
S'14336'
p850
sS'protocol'
p851
S'arduino'
p852
ssS'name'
p853
S'LilyPad Arduino w/ ATmega168'
p854
sg106
S'/usr/share/arduino/hardware/arduino'
p855
saa(lp856
S'pro5v328'
p857
a(dp858
S'build'
p859
(dp860
S'core'
p861
S'arduino'
p862
sS'mcu'
p863
S'atmega328p'
p864
sS'f_cpu'
p865
S'16000000L'
p866
sS'variant'
p867
S'standard'
p868
ssS'bootloader'
p869
(dp870
S'extended_fuses'
p871
S'0xfd'
p872
sS'high_fuses'
p873
S'0xDA'
p874
sS'low_fuses'
p875
S'0xFF'
p876
sS'lock_bits'
p877
S'0xcf'
p878
sS'file'
p879
S'ATmegaBOOT_168_atmega328.hex'
p880
sS'path'
p881
S'atmega'
p882
sS'unlock_bits'
p883
S'0xff'
p884
ssS'upload'
p885
(dp886
S'speed'
p887
S'57600'
p888
sS'maximum_size'
p889
S'30720'
p890
sS'protocol'
p891
S'arduino'
p892
ssS'name'
p893
S'Arduino Pro or Pro Mini (5V, 16 MHz) w/ ATmega328'
p894
sg106
S'/usr/share/arduino/hardware/arduino'
p895
saa(lp896
S'pro5v'
p897
a(dp898
S'build'
p899
(dp900
S'core'
p901
S'arduino'
p902
sS'mcu'
p903
S'atmega168'
p904
sS'f_cpu'
p905
S'16000000L'
p906
sS'variant'
p907
S'standard'
p908
ssS'bootloader'
p909
(dp910
S'extended_fuses'
p911
S'0xf8'
p912
sS'high_fuses'
p913
S'0xdd'
p914
sS'low_fuses'
p915
S'0xff'
p916
sS'lock_bits'
p917
S'0xcf'
p918
sS'file'
p919
S'ATmegaBOOT_168_diecimila.hex'
p920
sS'path'
p921
S'atmega'
p922
sS'unlock_bits'
p923
S'0xff'
p924
ssS'upload'
p925
(dp926
S'speed'
p927
S'19200'
p928
sS'maximum_size'
p929
S'14336'
p930
sS'protocol'
p931
S'arduino'
p932
ssS'name'
p933
S'Arduino Pro or Pro Mini (5V, 16 MHz) w/ ATmega168'
p934
sg106
S'/usr/share/arduino/hardware/arduino'
p935
saa(lp936
S'pro328'
p937
a(dp938
S'build'
p939
(dp940
S'core'
p941
S'arduino'
p942
sS'mcu'
p943
S'atmega328p'
p944
sS'f_cpu'
p945
S'8000000L'
p946
sS'variant'
p947
S'standard'
p948
ssS'bootloader'
p949
(dp950
S'extended_fuses'
p951
S'0xfd'
p952
sS'high_fuses'
p953
S'0xDA'
p954
sS'low_fuses'
p955
S'0xFF'
p956
sS'lock_bits'
p957
S'0xcf'
p958
sS'file'
p959
S'ATmegaBOOT_168_atmega328_pro_8MHz.hex'
p960
sS'path'
p961
S'atmega'
p962
sS'unlock_bits'
p963
S'0xff'
p964
ssS'upload'
p965
(dp966
S'speed'
p967
S'57600'
p968
sS'maximum_size'
p969
S'30720'
p970
sS'protocol'
p971
S'arduino'
p972
ssS'name'
p973
S'Arduino Pro or Pro Mini (3.3V, 8 MHz) w/ ATmega328'
p974
sg106
S'/usr/share/arduino/hardware/arduino'
p975
saa(lp976
S'pro'
p977
a(dp978
S'build'
p979
(dp980
S'core'
p981
S'arduino'
p982
sS'mcu'
p983
S'atmega168'
p984
sS'f_cpu'
p985
S'8000000L'
p986
sS'variant'
p987
S'standard'
p988
ssS'bootloader'
p989
(dp990
S'extended_fuses'
p991
S'0xf8'
p992
sS'high_fuses'
p993
S'0xdd'
p994
sS'low_fuses'
p995
S'0xc6'
p996
sS'lock_bits'
p997
S'0xcf'
p998
sS'file'
p999
S'ATmegaBOOT_168_pro_8MHz.hex'
p1000
sS'path'
p1001
S'atmega'
p1002
sS'unlock_bits'
p1003
S'0xff'
p1004
ssS'upload'
p1005
(dp1006
S'speed'
p1007
S'19200'
p1008
sS'maximum_size'
p1009
S'14336'
p1010
sS'protocol'
p1011
S'arduino'
p1012
ssS'name'
p1013
S'Arduino Pro or Pro Mini (3.3V, 8 MHz) w/ ATmega168'
p1014
sg106
S'/usr/share/arduino/hardware/arduino'
p1015
saa(lp1016
S'atmega168'
p1017
a(dp1018
S'build'
p1019
(dp1020
S'core'
p1021
S'arduino'
p1022
sS'mcu'
p1023
S'atmega168'
p1024
sS'f_cpu'
p1025
S'16000000L'
p1026
sS'variant'
p1027
S'standard'
p1028
ssS'bootloader'
p1029
(dp1030
S'extended_fuses'
p1031
S'0xf8'
p1032
sS'high_fuses'
p1033
S'0xdd'
p1034
sS'low_fuses'
p1035
S'0xff'
p1036
sS'lock_bits'
p1037
S'0xcf'
p1038
sS'file'
p1039
S'ATmegaBOOT_168_ng.hex'
p1040
sS'path'
p1041
S'atmega'
p1042
sS'unlock_bits'
p1043
S'0xff'
p1044
ssS'upload'
p1045
(dp1046
S'speed'
p1047
S'19200'
p1048
sS'maximum_size'
p1049
S'14336'
p1050
sS'protocol'
p1051
S'arduino'
p1052
ssS'name'
p1053
S'Arduino NG or older w/ ATmega168'
p1054
sg106
S'/usr/share/arduino/hardware/arduino'
p1055
saa(lp1056
S'atmega8'
p1057
a(dp1058
S'build'
p1059
(dp1060
S'core'
p1061
S'arduino'
p1062
sS'mcu'
p1063
S'atmega8'
p1064
sS'f_cpu'
p1065
S'16000000L'
p1066
sS'variant'
p1067
S'standard'
p1068
ssS'bootloader'
p1069
(dp1070
S'high_fuses'
p1071
S'0xca'
p1072
sS'low_fuses'
p1073
S'0xdf'
p1074
sS'lock_bits'
p1075
S'0xcf'
p1076
sS'file'
p1077
S'ATmegaBOOT-prod-firmware-2009-11-07.hex'
p1078
sS'path'
p1079
S'atmega8'
p1080
sS'unlock_bits'
p1081
S'0xff'
p1082
ssS'upload'
p1083
(dp1084
S'speed'
p1085
S'19200'
p1086
sS'maximum_size'
p1087
S'7168'
p1088
sS'protocol'
p1089
S'arduino'
p1090
ssS'name'
p1091
S'Arduino NG or older w/ ATmega8'
p1092
sg106
S'/usr/share/arduino/hardware/arduino'
p1093
saa(lp1094
S'robotControl'
p1095
a(dp1096
S'build'
p1097
(dp1098
S'core'
p1099
S'robot'
p1100
sS'f_cpu'
p1101
S'16000000L'
p1102
sS'vid'
p1103
S'0x2341'
p1104
sS'pid'
p1105
S'0x8038'
p1106
sS'variant'
p1107
S'robot_control'
p1108
sS'mcu'
p1109
S'atmega32u4'
p1110
ssS'bootloader'
p1111
(dp1112
S'extended_fuses'
p1113
S'0xcb'
p1114
sS'high_fuses'
p1115
S'0xd8'
p1116
sS'low_fuses'
p1117
S'0xff'
p1118
sS'lock_bits'
p1119
S'0xef'
p1120
sS'file'
p1121
S'Caterina-Robot-Control.hex'
p1122
sS'path'
p1123
S'caterina-Arduino_Robot'
p1124
sS'unlock_bits'
p1125
S'0xff'
p1126
ssS'upload'
p1127
(dp1128
S'speed'
p1129
S'57600'
p1130
sS'maximum_size'
p1131
S'28672'
p1132
sS'protocol'
p1133
S'avr109'
p1134
sS'disable_flushing'
p1135
S'true'
p1136
ssS'name'
p1137
S'Arduino Robot Control'
p1138
sg106
S'/usr/share/arduino/hardware/arduino'
p1139
saa(lp1140
S'robotMotor'
p1141
a(dp1142
S'build'
p1143
(dp1144
S'core'
p1145
S'robot'
p1146
sS'f_cpu'
p1147
S'16000000L'
p1148
sS'vid'
p1149
S'0x2341'
p1150
sS'pid'
p1151
S'0x8039'
p1152
sS'variant'
p1153
S'robot_motor'
p1154
sS'mcu'
p1155
S'atmega32u4'
p1156
ssS'bootloader'
p1157
(dp1158
S'extended_fuses'
p1159
S'0xcb'
p1160
sS'high_fuses'
p1161
S'0xd8'
p1162
sS'low_fuses'
p1163
S'0xff'
p1164
sS'lock_bits'
p1165
S'0xef'
p1166
sS'file'
p1167
S'Caterina-Robot-Motor.hex'
p1168
sS'path'
p1169
S'caterina-Arduino_Robot'
p1170
sS'unlock_bits'
p1171
S'0xff'
p1172
ssS'upload'
p1173
(dp1174
S'speed'
p1175
S'57600'
p1176
sS'maximum_size'
p1177
S'28672'
p1178
sS'protocol'
p1179
S'avr109'
p1180
sS'disable_flushing'
p1181
S'true'
p1182
ssS'name'
p1183
S'Arduino Robot Motor'
p1184
sg106
S'/usr/share/arduino/hardware/arduino'
p1185
saatp1186
Rp1187
(dp1188
S'default'
p1189
S'uno'
p1190
sbtp1191
a(S'used_libs'
p1192
(lp1193
S'lib/Encoder-Library'
p1194
aS'lib/Arduino-PID-Library'
p1195
aS'/usr/share/arduino/hardware/arduino/cores/arduino'
p1196
atp1197
a(S'make'
p1198
S'/usr/share/arduino/hardware/tools/avr/bin/make'
p1199
tp1200
a(S'arduino_libraries_dir'
p1201
S'/usr/share/arduino/libraries'
p1202
tp1203
a(S'cc'
p1204
S'/usr/share/arduino/hardware/tools/avr/bin/avr-gcc'
p1205
tp1206
a(S'cflags'
p1207
g2
(g3
g4
(lp1208
tp1209
Rp1210
tp1211
a(S'cxxflags'
p1212
g2
(g3
g4
(lp1213
S'-fno-exceptions'
p1214
atp1215
Rp1216
tp1217
a(S'arduino_variants_dir'
p1218
S'/usr/share/arduino/hardware/arduino/variants'
p1219
tp1220
a(S'serial'
p1221
S'/usr/bin/picocom'
p1222
tp1223
a(S'stty'
p1224
S'/bin/stty'
p1225
tp1226
a(S'version.txt'
p1227
S'/usr/share/arduino/lib/version.txt'
p1228
tp1229
a(S'arduino_core_dir'
p1230
g1196
tp1231
a(S'boards.txt'
p1232
(lp1233
S'/usr/share/arduino/hardware/arduino/boards.txt'
p1234
atp1235
a(S'avrdude.conf'
p1236
S'/usr/share/arduino/hardware/tools/avrdude.conf'
p1237
tp1238
a(S'deps'
p1239
g2
(g3
g4
(lp1240
S'.build/mega2560/src/dependencies.d'
p1241
aS'.build/mega2560/arduino/dependencies.d'
p1242
aS'.build/mega2560/Encoder-Library/dependencies.d'
p1243
aS'.build/mega2560/Arduino-PID-Library/dependencies.d'
p1244
atp1245
Rp1246
tp1247
a.